target datalayout = "e-m:e-p270:32:32-p271:32:32-p272:64:64-i64:64-i128:128-f80:128-n8:16:32:64-S128"
target triple = "x86_64-pc-linux-gnu"

%"class.cv::Mat" = type { i32, i32, i32, i32, ptr, ptr, ptr, ptr, ptr, ptr, %"struct.cv::MatSize", %"struct.cv::MatStep" }
%"struct.cv::MatSize" = type { ptr }
%"struct.cv::MatStep" = type { ptr, [2 x i64] }

; Function Attrs: inlinehint mustprogress nounwind uwtable
define linkonce_odr hidden noundef i64 @_ZNK2cv3Mat9elemSize1Ev(ptr noundef nonnull align 8 dereferenceable(96) %0) #6 comdat align 2 {
  %2 = alloca ptr, align 8
  store ptr %0, ptr %2, align 8, !tbaa !34
  %3 = load ptr, ptr %2, align 8
  %4 = getelementptr inbounds nuw %"class.cv::Mat", ptr %3, i32 0, i32 0
  %5 = load i32, ptr %4, align 8, !tbaa !79
  %6 = and i32 %5, 7
  %7 = mul nsw i32 %6, 4
  %8 = ashr i32 675553809, %7
  %9 = and i32 %8, 15
  %10 = sext i32 %9 to i64
  ret i64 %10
}

; Function Attrs: mustprogress uwtable
define noundef i64 @_ZNK2cv3Mat5step1Ei(ptr noundef nonnull align 8 dereferenceable(96) %0, i32 noundef %1) #1 align 2 {
  %3 = alloca ptr, align 8
  %4 = alloca i32, align 4
  store ptr %0, ptr %3, align 8, !tbaa !34
  store i32 %1, ptr %4, align 4, !tbaa !26
  %5 = load ptr, ptr %3, align 8
  %6 = getelementptr inbounds nuw %"class.cv::Mat", ptr %5, i32 0, i32 11
  %7 = getelementptr inbounds nuw %"struct.cv::MatStep", ptr %6, i32 0, i32 0
  %8 = load ptr, ptr %7, align 8, !tbaa !75
  %9 = load i32, ptr %4, align 4, !tbaa !26
  %10 = sext i32 %9 to i64
  %11 = getelementptr inbounds i64, ptr %8, i64 %10
  %12 = load i64, ptr %11, align 8, !tbaa !31
  %13 = call noundef i64 @_ZNK2cv3Mat9elemSize1Ev(ptr noundef nonnull align 8 dereferenceable(96) %5)
  %14 = udiv i64 %12, %13
  ret i64 %14
}