; Function Attrs: mustprogress nofree norecurse nosync nounwind willreturn memory(read, inaccessiblemem: none) uwtable
define noundef i64 @_ZNK2cv3Mat5step1Ei(ptr noundef nonnull readonly align 8 captures(none) dereferenceable(96) %0, i32 noundef %1) local_unnamed_addr #13 align 2 {
  %3 = getelementptr inbounds nuw i8, ptr %0, i64 72
  %4 = load ptr, ptr %3, align 8, !tbaa !57
  %5 = sext i32 %1 to i64
  %6 = getelementptr inbounds i64, ptr %4, i64 %5
  %7 = load i64, ptr %6, align 8, !tbaa !22
  %8 = load i32, ptr %0, align 8, !tbaa !61
  %9 = shl i32 %8, 2
  %10 = and i32 %9, 28
  %11 = lshr i32 675553809, %10
  %12 = and i32 %11, 15
  %13 = zext nneg i32 %12 to i64
  %14 = udiv i64 %7, %13
  ret i64 %14
}